target datalayout = "e-m:e-p270:32:32-p271:32:32-p272:64:64-i64:64-i128:128-f80:128-n8:16:32:64-S128"
target triple = "x86_64-pc-linux-gnu"

@stderr = external global ptr, align 8
@.str.1 = private unnamed_addr constant [109 x i8] c"generated/home/dtcxzyw/WorkSpace/Projects/compilers/llvm-opt-benchmark/bench/libzmq/libzmq/src/mechanism.cpp\00", align 1
@.str.3 = private unnamed_addr constant [30 x i8] c"Assertion failed: %s (%s:%d)\0A\00", align 1
@.str.5 = private unnamed_addr constant [27 x i8] c"total_len <= ptr_capacity_\00", align 1
@.str.6 = private unnamed_addr constant [25 x i8] c"value_len_ <= 0x7FFFFFFF\00", align 1
@.str.12 = private unnamed_addr constant [22 x i8] c"name_len <= UCHAR_MAX\00", align 1

; Function Attrs: inlinehint mustprogress nounwind uwtable
define linkonce_odr void @_ZN3zmq10put_uint32EPhj(ptr noundef %0, i32 noundef %1) #3 comdat {
  %3 = alloca ptr, align 8
  %4 = alloca i32, align 4
  store ptr %0, ptr %3, align 8, !tbaa !67
  store i32 %1, ptr %4, align 4, !tbaa !72
  %5 = load i32, ptr %4, align 4, !tbaa !72
  %6 = lshr i32 %5, 24
  %7 = and i32 %6, 255
  %8 = trunc i32 %7 to i8
  %9 = load ptr, ptr %3, align 8, !tbaa !67
  %10 = getelementptr inbounds i8, ptr %9, i64 0
  store i8 %8, ptr %10, align 1, !tbaa !79
  %11 = load i32, ptr %4, align 4, !tbaa !72
  %12 = lshr i32 %11, 16
  %13 = and i32 %12, 255
  %14 = trunc i32 %13 to i8
  %15 = load ptr, ptr %3, align 8, !tbaa !67
  %16 = getelementptr inbounds i8, ptr %15, i64 1
  store i8 %14, ptr %16, align 1, !tbaa !79
  %17 = load i32, ptr %4, align 4, !tbaa !72
  %18 = lshr i32 %17, 8
  %19 = and i32 %18, 255
  %20 = trunc i32 %19 to i8
  %21 = load ptr, ptr %3, align 8, !tbaa !67
  %22 = getelementptr inbounds i8, ptr %21, i64 2
  store i8 %20, ptr %22, align 1, !tbaa !79
  %23 = load i32, ptr %4, align 4, !tbaa !72
  %24 = and i32 %23, 255
  %25 = trunc i32 %24 to i8
  %26 = load ptr, ptr %3, align 8, !tbaa !67
  %27 = getelementptr inbounds i8, ptr %26, i64 3
  store i8 %25, ptr %27, align 1, !tbaa !79
  ret void
}

; Function Attrs: mustprogress nounwind uwtable
define internal noundef i64 @_ZL12property_lenmm(i64 noundef %0, i64 noundef %1) #2 {
  %3 = alloca i64, align 8
  %4 = alloca i64, align 8
  store i64 %0, ptr %3, align 8, !tbaa !66
  store i64 %1, ptr %4, align 8, !tbaa !66
  %5 = load i64, ptr %3, align 8, !tbaa !66
  %6 = add i64 1, %5
  %7 = add i64 %6, 4
  %8 = load i64, ptr %4, align 8, !tbaa !66
  %9 = add i64 %7, %8
  ret i64 %9
}

; Function Attrs: mustprogress uwtable
define internal noundef i64 @_ZL8name_lenPKc(ptr noundef %0) #0 {
  %2 = alloca ptr, align 8
  %3 = alloca i64, align 8
  store ptr %0, ptr %2, align 8, !tbaa !67
  call void @llvm.lifetime.start.p0(i64 8, ptr %3) #18
  %4 = load ptr, ptr %2, align 8, !tbaa !67
  %5 = call i64 @strlen(ptr noundef %4) #23
  store i64 %5, ptr %3, align 8, !tbaa !66
  br label %6

6:                                                ; preds = %1
  %7 = load i64, ptr %3, align 8, !tbaa !66
  %8 = icmp ule i64 %7, 255
  %9 = xor i1 %8, true
  %10 = zext i1 %9 to i64
  %11 = call i64 @llvm.expect.i64(i64 %10, i64 0)
  %12 = icmp ne i64 %11, 0
  br i1 %12, label %13, label %18

13:                                               ; preds = %6
  %14 = load ptr, ptr @stderr, align 8, !tbaa !68
  %15 = call i32 (ptr, ptr, ...) @fprintf(ptr noundef %14, ptr noundef @.str.3, ptr noundef @.str.12, ptr noundef @.str.1, i32 noundef 107) #18
  %16 = load ptr, ptr @stderr, align 8, !tbaa !68
  %17 = call i32 @fflush(ptr noundef %16)
  call void @_ZN3zmq9zmq_abortEPKc(ptr noundef @.str.12)
  br label %18

18:                                               ; preds = %13, %6
  br label %19

19:                                               ; preds = %18
  br label %20

20:                                               ; preds = %19
  %21 = load i64, ptr %3, align 8, !tbaa !66
  call void @llvm.lifetime.end.p0(i64 8, ptr %3) #18
  ret i64 %21
}

; Function Attrs: mustprogress uwtable
define noundef i64 @_ZN3zmq11mechanism_t12add_propertyEPhmPKcPKvm(ptr noundef %0, i64 noundef %1, ptr noundef %2, ptr noundef %3, i64 noundef %4) #0 align 2 {
  %6 = alloca ptr, align 8
  %7 = alloca i64, align 8
  %8 = alloca ptr, align 8
  %9 = alloca ptr, align 8
  %10 = alloca i64, align 8
  %11 = alloca i64, align 8
  %12 = alloca i64, align 8
  store ptr %0, ptr %6, align 8, !tbaa !67
  store i64 %1, ptr %7, align 8, !tbaa !66
  store ptr %2, ptr %8, align 8, !tbaa !67
  store ptr %3, ptr %9, align 8, !tbaa !65
  store i64 %4, ptr %10, align 8, !tbaa !66
  call void @llvm.lifetime.start.p0(i64 8, ptr %11) #18
  %13 = load ptr, ptr %8, align 8, !tbaa !67
  %14 = call noundef i64 @_ZL8name_lenPKc(ptr noundef %13)
  store i64 %14, ptr %11, align 8, !tbaa !66
  call void @llvm.lifetime.start.p0(i64 8, ptr %12) #18
  %15 = load i64, ptr %11, align 8, !tbaa !66
  %16 = load i64, ptr %10, align 8, !tbaa !66
  %17 = call noundef i64 @_ZL12property_lenmm(i64 noundef %15, i64 noundef %16)
  store i64 %17, ptr %12, align 8, !tbaa !66
  br label %18

18:                                               ; preds = %5
  %19 = load i64, ptr %12, align 8, !tbaa !66
  %20 = load i64, ptr %7, align 8, !tbaa !66
  %21 = icmp ule i64 %19, %20
  %22 = xor i1 %21, true
  %23 = zext i1 %22 to i64
  %24 = call i64 @llvm.expect.i64(i64 %23, i64 0)
  %25 = icmp ne i64 %24, 0
  br i1 %25, label %26, label %31

26:                                               ; preds = %18
  %27 = load ptr, ptr @stderr, align 8, !tbaa !68
  %28 = call i32 (ptr, ptr, ...) @fprintf(ptr noundef %27, ptr noundef @.str.3, ptr noundef @.str.5, ptr noundef @.str.1, i32 noundef 119) #18
  %29 = load ptr, ptr @stderr, align 8, !tbaa !68
  %30 = call i32 @fflush(ptr noundef %29)
  call void @_ZN3zmq9zmq_abortEPKc(ptr noundef @.str.5)
  br label %31

31:                                               ; preds = %26, %18
  br label %32

32:                                               ; preds = %31
  br label %33

33:                                               ; preds = %32
  %34 = load i64, ptr %11, align 8, !tbaa !66
  %35 = trunc i64 %34 to i8
  %36 = load ptr, ptr %6, align 8, !tbaa !67
  store i8 %35, ptr %36, align 1, !tbaa !79
  %37 = load ptr, ptr %6, align 8, !tbaa !67
  %38 = getelementptr inbounds nuw i8, ptr %37, i64 1
  store ptr %38, ptr %6, align 8, !tbaa !67
  %39 = load ptr, ptr %6, align 8, !tbaa !67
  %40 = load ptr, ptr %8, align 8, !tbaa !67
  %41 = load i64, ptr %11, align 8, !tbaa !66
  call void @llvm.memcpy.p0.p0.i64(ptr align 1 %39, ptr align 1 %40, i64 %41, i1 false)
  %42 = load i64, ptr %11, align 8, !tbaa !66
  %43 = load ptr, ptr %6, align 8, !tbaa !67
  %44 = getelementptr inbounds nuw i8, ptr %43, i64 %42
  store ptr %44, ptr %6, align 8, !tbaa !67
  br label %45

45:                                               ; preds = %33
  %46 = load i64, ptr %10, align 8, !tbaa !66
  %47 = icmp ule i64 %46, 2147483647
  %48 = xor i1 %47, true
  %49 = zext i1 %48 to i64
  %50 = call i64 @llvm.expect.i64(i64 %49, i64 0)
  %51 = icmp ne i64 %50, 0
  br i1 %51, label %52, label %57

52:                                               ; preds = %45
  %53 = load ptr, ptr @stderr, align 8, !tbaa !68
  %54 = call i32 (ptr, ptr, ...) @fprintf(ptr noundef %53, ptr noundef @.str.3, ptr noundef @.str.6, ptr noundef @.str.1, i32 noundef 125) #18
  %55 = load ptr, ptr @stderr, align 8, !tbaa !68
  %56 = call i32 @fflush(ptr noundef %55)
  call void @_ZN3zmq9zmq_abortEPKc(ptr noundef @.str.6)
  br label %57

57:                                               ; preds = %52, %45
  br label %58

58:                                               ; preds = %57
  br label %59

59:                                               ; preds = %58
  %60 = load ptr, ptr %6, align 8, !tbaa !67
  %61 = load i64, ptr %10, align 8, !tbaa !66
  %62 = trunc i64 %61 to i32
  call void @_ZN3zmq10put_uint32EPhj(ptr noundef %60, i32 noundef %62)
  %63 = load ptr, ptr %6, align 8, !tbaa !67
  %64 = getelementptr inbounds nuw i8, ptr %63, i64 4
  store ptr %64, ptr %6, align 8, !tbaa !67
  %65 = load ptr, ptr %6, align 8, !tbaa !67
  %66 = load ptr, ptr %9, align 8, !tbaa !65
  %67 = load i64, ptr %10, align 8, !tbaa !66
  call void @llvm.memcpy.p0.p0.i64(ptr align 1 %65, ptr align 1 %66, i64 %67, i1 false)
  %68 = load i64, ptr %12, align 8, !tbaa !66
  call void @llvm.lifetime.end.p0(i64 8, ptr %12) #18
  call void @llvm.lifetime.end.p0(i64 8, ptr %11) #18
  ret i64 %68
}