; Function Attrs: mustprogress uwtable
define noundef i64 @_ZN3zmq11mechanism_t12add_propertyEPhmPKcPKvm(ptr noundef writeonly captures(none) initializes((0, 1)) %0, i64 noundef %1, ptr noundef readonly captures(none) %2, ptr noundef readonly captures(none) %3, i64 noundef %4) local_unnamed_addr #0 align 2 {
  %6 = tail call i64 @strlen(ptr noundef nonnull readonly dereferenceable(1) %2) #35
  %7 = icmp ugt i64 %6, 255
  br i1 %7, label %8, label %_ZL8name_lenPKc.exit, !prof !36

8:                                                ; preds = %5
  %9 = load ptr, ptr @stderr, align 8, !tbaa !91
  %10 = tail call i32 (ptr, ptr, ...) @fprintf(ptr noundef %9, ptr noundef nonnull @.str.3, ptr noundef nonnull @.str.12, ptr noundef nonnull @.str.1, i32 noundef 107) #33
  %11 = load ptr, ptr @stderr, align 8, !tbaa !91
  %12 = tail call i32 @fflush(ptr noundef %11)
  tail call void @_ZN3zmq9zmq_abortEPKc(ptr noundef nonnull @.str.12)
  br label %_ZL8name_lenPKc.exit

_ZL8name_lenPKc.exit:                             ; preds = %5, %8
  %13 = add i64 %4, 5
  %14 = add i64 %13, %6
  %.not = icmp ugt i64 %14, %1
  br i1 %.not, label %15, label %20, !prof !36

15:                                               ; preds = %_ZL8name_lenPKc.exit
  %16 = load ptr, ptr @stderr, align 8, !tbaa !91
  %17 = tail call i32 (ptr, ptr, ...) @fprintf(ptr noundef %16, ptr noundef nonnull @.str.3, ptr noundef nonnull @.str.5, ptr noundef nonnull @.str.1, i32 noundef 119) #33
  %18 = load ptr, ptr @stderr, align 8, !tbaa !91
  %19 = tail call i32 @fflush(ptr noundef %18)
  tail call void @_ZN3zmq9zmq_abortEPKc(ptr noundef nonnull @.str.5)
  br label %20

20:                                               ; preds = %15, %_ZL8name_lenPKc.exit
  %21 = trunc i64 %6 to i8
  store i8 %21, ptr %0, align 1, !tbaa !31
  %22 = getelementptr inbounds nuw i8, ptr %0, i64 1
  tail call void @llvm.memcpy.p0.p0.i64(ptr nonnull align 1 %22, ptr nonnull align 1 %2, i64 %6, i1 false)
  %23 = icmp ugt i64 %4, 2147483647
  br i1 %23, label %24, label %29, !prof !36

24:                                               ; preds = %20
  %25 = load ptr, ptr @stderr, align 8, !tbaa !91
  %26 = tail call i32 (ptr, ptr, ...) @fprintf(ptr noundef %25, ptr noundef nonnull @.str.3, ptr noundef nonnull @.str.6, ptr noundef nonnull @.str.1, i32 noundef 125) #33
  %27 = load ptr, ptr @stderr, align 8, !tbaa !91
  %28 = tail call i32 @fflush(ptr noundef %27)
  tail call void @_ZN3zmq9zmq_abortEPKc(ptr noundef nonnull @.str.6)
  br label %29

29:                                               ; preds = %24, %20
  %30 = getelementptr inbounds nuw i8, ptr %22, i64 %6
  %31 = lshr i64 %4, 24
  %32 = trunc i64 %31 to i8
  store i8 %32, ptr %30, align 1, !tbaa !31
  %33 = lshr i64 %4, 16
  %34 = trunc i64 %33 to i8
  %35 = getelementptr inbounds nuw i8, ptr %30, i64 1
  store i8 %34, ptr %35, align 1, !tbaa !31
  %36 = lshr i64 %4, 8
  %37 = trunc i64 %36 to i8
  %38 = getelementptr inbounds nuw i8, ptr %30, i64 2
  store i8 %37, ptr %38, align 1, !tbaa !31
  %39 = trunc i64 %4 to i8
  %40 = getelementptr inbounds nuw i8, ptr %30, i64 3
  store i8 %39, ptr %40, align 1, !tbaa !31
  %41 = getelementptr inbounds nuw i8, ptr %30, i64 4
  tail call void @llvm.memcpy.p0.p0.i64(ptr nonnull align 1 %41, ptr align 1 %3, i64 %4, i1 false)
  ret i64 %14
}